; Function Attrs: mustprogress sspstrong uwtable
define void @_ZN3tbb6detail2r122threading_control_impl22set_active_num_workersEj(ptr noundef nonnull readonly align 8 captures(none) dereferenceable(40) %0, i32 noundef %1) local_unnamed_addr #0 align 2 {
  %3 = getelementptr inbounds nuw i8, ptr %0, i64 16
  %4 = load ptr, ptr %3, align 8, !tbaa !54
  tail call void @_ZN3tbb6detail2r131thread_request_serializer_proxy22set_active_num_workersEi(ptr noundef nonnull align 8 dereferenceable(64) %4, i32 noundef %1)
  %5 = load ptr, ptr %0, align 8, !tbaa !47
  %6 = load ptr, ptr %5, align 8, !tbaa !14
  %7 = getelementptr inbounds nuw i8, ptr %6, i64 40
  %8 = load ptr, ptr %7, align 8
  tail call void %8(ptr noundef nonnull align 8 dereferenceable(16) %5, i32 noundef %1)
  ret void
}